; ModuleID = '21/1937.c'
source_filename = "21/1937.c"
target datalayout = "e-m:e-p270:32:32-p271:32:32-p272:64:64-i64:64-f80:128-n8:16:32:64-S128"
target triple = "x86_64-pc-linux-gnu"

@.str = private unnamed_addr constant [3 x i8] c"%d\00", align 1
@.str.1 = private unnamed_addr constant [7 x i8] c"%d,%d\0A\00", align 1
@.str.2 = private unnamed_addr constant [4 x i8] c"%d\0A\00", align 1

; Function Attrs: noinline nounwind uwtable
define dso_local void @main() #0 {
  %1 = alloca [301 x i32], align 16
  %2 = alloca i32, align 4
  %3 = alloca i32, align 4
  %4 = alloca i32, align 4
  %5 = alloca i32, align 4
  %6 = alloca i32, align 4
  %7 = alloca i32, align 4
  store i32 0, i32* %5, align 4
  %8 = call i32 (i8*, ...) @__isoc99_scanf(i8* getelementptr inbounds ([3 x i8], [3 x i8]* @.str, i64 0, i64 0), i32* %4)
  store i32 0, i32* %2, align 4
  br label %9

9:                                                ; preds = %24, %0
  %10 = load i32, i32* %2, align 4
  %11 = load i32, i32* %4, align 4
  %12 = icmp slt i32 %10, %11
  br i1 %12, label %13, label %27

13:                                               ; preds = %9
  %14 = load i32, i32* %2, align 4
  %15 = sext i32 %14 to i64
  %16 = getelementptr inbounds [301 x i32], [301 x i32]* %1, i64 0, i64 %15
  %17 = call i32 (i8*, ...) @__isoc99_scanf(i8* getelementptr inbounds ([3 x i8], [3 x i8]* @.str, i64 0, i64 0), i32* %16)
  %18 = load i32, i32* %5, align 4
  %19 = load i32, i32* %2, align 4
  %20 = sext i32 %19 to i64
  %21 = getelementptr inbounds [301 x i32], [301 x i32]* %1, i64 0, i64 %20
  %22 = load i32, i32* %21, align 4
  %23 = add nsw i32 %18, %22
  store i32 %23, i32* %5, align 4
  br label %24

24:                                               ; preds = %13
  %25 = load i32, i32* %2, align 4
  %26 = add nsw i32 %25, 1
  store i32 %26, i32* %2, align 4
  br label %9

27:                                               ; preds = %9
  store i32 0, i32* %2, align 4
  br label %28

28:                                               ; preds = %72, %27
  %29 = load i32, i32* %2, align 4
  %30 = load i32, i32* %4, align 4
  %31 = sub nsw i32 %30, 1
  %32 = icmp slt i32 %29, %31
  br i1 %32, label %33, label %75

33:                                               ; preds = %28
  %34 = load i32, i32* %2, align 4
  %35 = add nsw i32 %34, 1
  store i32 %35, i32* %3, align 4
  br label %36

36:                                               ; preds = %68, %33
  %37 = load i32, i32* %3, align 4
  %38 = load i32, i32* %4, align 4
  %39 = sub nsw i32 %38, 1
  %40 = icmp sle i32 %37, %39
  br i1 %40, label %41, label %71

41:                                               ; preds = %36
  %42 = load i32, i32* %3, align 4
  %43 = sext i32 %42 to i64
  %44 = getelementptr inbounds [301 x i32], [301 x i32]* %1, i64 0, i64 %43
  %45 = load i32, i32* %44, align 4
  %46 = load i32, i32* %2, align 4
  %47 = sext i32 %46 to i64
  %48 = getelementptr inbounds [301 x i32], [301 x i32]* %1, i64 0, i64 %47
  %49 = load i32, i32* %48, align 4
  %50 = icmp slt i32 %45, %49
  br i1 %50, label %51, label %67

51:                                               ; preds = %41
  %52 = load i32, i32* %2, align 4
  %53 = sext i32 %52 to i64
  %54 = getelementptr inbounds [301 x i32], [301 x i32]* %1, i64 0, i64 %53
  %55 = load i32, i32* %54, align 4
  store i32 %55, i32* %7, align 4
  %56 = load i32, i32* %3, align 4
  %57 = sext i32 %56 to i64
  %58 = getelementptr inbounds [301 x i32], [301 x i32]* %1, i64 0, i64 %57
  %59 = load i32, i32* %58, align 4
  %60 = load i32, i32* %2, align 4
  %61 = sext i32 %60 to i64
  %62 = getelementptr inbounds [301 x i32], [301 x i32]* %1, i64 0, i64 %61
  store i32 %59, i32* %62, align 4
  %63 = load i32, i32* %7, align 4
  %64 = load i32, i32* %3, align 4
  %65 = sext i32 %64 to i64
  %66 = getelementptr inbounds [301 x i32], [301 x i32]* %1, i64 0, i64 %65
  store i32 %63, i32* %66, align 4
  br label %67

67:                                               ; preds = %51, %41
  br label %68

68:                                               ; preds = %67
  %69 = load i32, i32* %3, align 4
  %70 = add nsw i32 %69, 1
  store i32 %70, i32* %3, align 4
  br label %36

71:                                               ; preds = %36
  br label %72

72:                                               ; preds = %71
  %73 = load i32, i32* %2, align 4
  %74 = add nsw i32 %73, 1
  store i32 %74, i32* %2, align 4
  br label %28

75:                                               ; preds = %28
  %76 = getelementptr inbounds [301 x i32], [301 x i32]* %1, i64 0, i64 0
  %77 = load i32, i32* %76, align 16
  %78 = load i32, i32* %4, align 4
  %79 = sub nsw i32 %78, 1
  %80 = sext i32 %79 to i64
  %81 = getelementptr inbounds [301 x i32], [301 x i32]* %1, i64 0, i64 %80
  %82 = load i32, i32* %81, align 4
  %83 = add nsw i32 %77, %82
  %84 = load i32, i32* %4, align 4
  %85 = mul nsw i32 %83, %84
  %86 = load i32, i32* %5, align 4
  %87 = mul nsw i32 %86, 2
  %88 = icmp eq i32 %85, %87
  br i1 %88, label %89, label %98

89:                                               ; preds = %75
  %90 = getelementptr inbounds [301 x i32], [301 x i32]* %1, i64 0, i64 0
  %91 = load i32, i32* %90, align 16
  %92 = load i32, i32* %4, align 4
  %93 = sub nsw i32 %92, 1
  %94 = sext i32 %93 to i64
  %95 = getelementptr inbounds [301 x i32], [301 x i32]* %1, i64 0, i64 %94
  %96 = load i32, i32* %95, align 4
  %97 = call i32 (i8*, ...) @printf(i8* getelementptr inbounds ([7 x i8], [7 x i8]* @.str.1, i64 0, i64 0), i32 %91, i32 %96)
  br label %139

98:                                               ; preds = %75
  %99 = getelementptr inbounds [301 x i32], [301 x i32]* %1, i64 0, i64 0
  %100 = load i32, i32* %99, align 16
  %101 = load i32, i32* %4, align 4
  %102 = sub nsw i32 %101, 1
  %103 = sext i32 %102 to i64
  %104 = getelementptr inbounds [301 x i32], [301 x i32]* %1, i64 0, i64 %103
  %105 = load i32, i32* %104, align 4
  %106 = add nsw i32 %100, %105
  %107 = load i32, i32* %4, align 4
  %108 = mul nsw i32 %106, %107
  %109 = load i32, i32* %5, align 4
  %110 = mul nsw i32 %109, 2
  %111 = icmp slt i32 %108, %110
  br i1 %111, label %112, label %116

112:                                              ; preds = %98
  %113 = getelementptr inbounds [301 x i32], [301 x i32]* %1, i64 0, i64 0
  %114 = load i32, i32* %113, align 16
  %115 = call i32 (i8*, ...) @printf(i8* getelementptr inbounds ([4 x i8], [4 x i8]* @.str.2, i64 0, i64 0), i32 %114)
  br label %138

116:                                              ; preds = %98
  %117 = getelementptr inbounds [301 x i32], [301 x i32]* %1, i64 0, i64 0
  %118 = load i32, i32* %117, align 16
  %119 = load i32, i32* %4, align 4
  %120 = sub nsw i32 %119, 1
  %121 = sext i32 %120 to i64
  %122 = getelementptr inbounds [301 x i32], [301 x i32]* %1, i64 0, i64 %121
  %123 = load i32, i32* %122, align 4
  %124 = add nsw i32 %118, %123
  %125 = load i32, i32* %4, align 4
  %126 = mul nsw i32 %124, %125
  %127 = load i32, i32* %5, align 4
  %128 = mul nsw i32 %127, 2
  %129 = icmp sgt i32 %126, %128
  br i1 %129, label %130, label %137

130:                                              ; preds = %116
  %131 = load i32, i32* %4, align 4
  %132 = sub nsw i32 %131, 1
  %133 = sext i32 %132 to i64
  %134 = getelementptr inbounds [301 x i32], [301 x i32]* %1, i64 0, i64 %133
  %135 = load i32, i32* %134, align 4
  %136 = call i32 (i8*, ...) @printf(i8* getelementptr inbounds ([4 x i8], [4 x i8]* @.str.2, i64 0, i64 0), i32 %135)
  br label %137

137:                                              ; preds = %130, %116
  br label %138

138:                                              ; preds = %137, %112
  br label %139

139:                                              ; preds = %138, %89
  ret void
}

declare dso_local i32 @__isoc99_scanf(i8*, ...) #1

declare dso_local i32 @printf(i8*, ...) #1


!llvm.module.flags = !{!0}
!llvm.ident = !{!1}

!0 = !{i32 1, !"wchar_size", i32 4}
!1 = !{!"clang version 10.0.0-4ubuntu1 "}
